Certificate:
    Data:
        Version: 3 (0x2)
        Serial Number:
            30:bb:79:e9:74:bc:90:7e:4f:4e:0e:68:c2:a0:9c:00
        Signature Algorithm: ecdsa-with-SHA512
        Issuer: CN=Graba Federation CA
        Validity
            Not Before: Feb 25 00:20:53 2024 GMT
            Not After : Feb  9 00:20:53 2027 GMT
        Subject: C=US, ST=Colorado, L=Denver, O=Graba Federation, OU=IT, CN=federation/emailAddress=wesley.graba@gmail.com
        Subject Public Key Info:
            Public Key Algorithm: id-ecPublicKey
                Public-Key: (384 bit)
                pub:
                    04:d2:8c:f3:ac:aa:98:b0:db:96:12:3e:19:16:17:
                    c6:14:4a:50:78:c1:11:01:4e:6d:79:76:75:67:73:
                    89:74:13:7e:bb:9b:7b:c5:7c:14:d5:e8:fd:34:2b:
                    b5:51:64:bc:ac:36:d4:36:44:67:a3:97:27:7c:b6:
                    a4:9b:0c:60:4a:ca:a4:c8:fd:88:9b:c7:a4:f3:bb:
                    25:5c:2e:3b:65:37:a0:31:be:39:13:f6:ec:93:5f:
                    00:9a:61:17:eb:8b:21
                ASN1 OID: secp384r1
                NIST CURVE: P-384
        X509v3 extensions:
            X509v3 Basic Constraints: 
                CA:FALSE
            X509v3 Subject Key Identifier: 
                5C:F2:12:91:C6:32:82:3D:BB:91:48:2A:78:36:3A:45:6F:E3:5D:15
            X509v3 Authority Key Identifier: 
                keyid:6A:F5:5A:B5:DB:65:95:CF:3A:DD:90:AB:C5:69:F9:96:1D:1C:09:D6
                DirName:/CN=Graba Federation CA
                serial:34:99:EE:86:39:E7:43:2F:A8:04:D5:36:96:87:26:86:C8:F2:9E:5E

            X509v3 Extended Key Usage: 
                TLS Web Server Authentication
            X509v3 Key Usage: 
                Digital Signature, Key Encipherment
            X509v3 Subject Alternative Name: 
                DNS:*.federation.home
    Signature Algorithm: ecdsa-with-SHA512
         30:64:02:30:45:ba:9c:06:38:2c:c5:7b:90:34:d2:a9:fe:d2:
         5b:e2:df:16:6a:d4:60:d2:3e:3c:28:d5:6b:46:38:57:95:45:
         bf:04:7f:ca:17:0f:24:6e:57:78:55:17:8a:2b:3c:65:02:30:
         2f:5b:4c:cf:5f:4d:a3:b4:df:6d:c5:7b:40:1f:83:86:79:9d:
         8f:6e:94:e3:b0:5b:c3:2d:4d:82:25:f7:e8:18:0a:0c:0d:db:
         01:b5:13:92:7a:a8:88:c7:e5:03:e8:34
-----BEGIN CERTIFICATE-----
MIICtzCCAj6gAwIBAgIQMLt56XS8kH5PTg5owqCcADAKBggqhkjOPQQDBDAeMRww
GgYDVQQDDBNHcmFiYSBGZWRlcmF0aW9uIENBMB4XDTI0MDIyNTAwMjA1M1oXDTI3
MDIwOTAwMjA1M1owgZUxCzAJBgNVBAYTAlVTMREwDwYDVQQIDAhDb2xvcmFkbzEP
MA0GA1UEBwwGRGVudmVyMRkwFwYDVQQKDBBHcmFiYSBGZWRlcmF0aW9uMQswCQYD
VQQLDAJJVDETMBEGA1UEAwwKZmVkZXJhdGlvbjElMCMGCSqGSIb3DQEJARYWd2Vz
bGV5LmdyYWJhQGdtYWlsLmNvbTB2MBAGByqGSM49AgEGBSuBBAAiA2IABNKM86yq
mLDblhI+GRYXxhRKUHjBEQFObXl2dWdziXQTfrube8V8FNXo/TQrtVFkvKw21DZE
Z6OXJ3y2pJsMYErKpMj9iJvHpPO7JVwuO2U3oDG+ORP27JNfAJphF+uLIaOByDCB
xTAJBgNVHRMEAjAAMB0GA1UdDgQWBBRc8hKRxjKCPbuRSCp4NjpFb+NdFTBZBgNV
HSMEUjBQgBRq9Vq122WVzzrdkKvFafmWHRwJ1qEipCAwHjEcMBoGA1UEAwwTR3Jh
YmEgRmVkZXJhdGlvbiBDQYIUNJnuhjnnQy+oBNU2locmhsjynl4wEwYDVR0lBAww
CgYIKwYBBQUHAwEwCwYDVR0PBAQDAgWgMBwGA1UdEQQVMBOCESouZmVkZXJhdGlv
bi5ob21lMAoGCCqGSM49BAMEA2cAMGQCMEW6nAY4LMV7kDTSqf7SW+LfFmrUYNI+
PCjVa0Y4V5VFvwR/yhcPJG5XeFUXiis8ZQIwL1tMz19No7TfbcV7QB+Dhnmdj26U
47Bbwy1NgiX36BgKDA3bAbUTknqoiMflA+g0
-----END CERTIFICATE-----
